(lp0
S'PhD 2017-18 Odd semester admission'
p1
aS"B.Tech S1,S2 Suppl'y Exam - Slot D, B1 and B2 Exams Postponed"
p2
aS'MBA T4 Supplementary Examination 2017 - Result Published'
p3
aS'M.Tech S3 Supplementary Examination July/August 2017 - Examination schedule published'
p4
aS'MCA (3 year / Lateral Entry / Integrated) S1 Supplementary Examination Registration is open now.'
p5
aS"Answer Script copy requests for B.Tech-S2,S4, M.Tech-S1,S3,S2(suppl'y), B.Arch S2 Exams is open now."
p6
a.